target datalayout = "e-m:e-p270:32:32-p271:32:32-p272:64:64-i64:64-i128:128-f80:128-n8:16:32:64-S128"
target triple = "x86_64-pc-linux-gnu"

%struct.traceobj_arg = type { i32, i32, i64, i64, ptr, ptr, ptr }
%struct.allocation_info = type { i32, i64, i64, ptr, i64, ptr, i64, i64 }

; Function Attrs: nounwind sspstrong uwtable
define internal void @delete_unique_str(ptr noundef %0, ptr noundef %1) #0 {
  %3 = alloca ptr, align 8
  %4 = alloca ptr, align 8
  %5 = alloca i64, align 8
  store ptr %0, ptr %3, align 8, !tbaa !44
  store ptr %1, ptr %4, align 8, !tbaa !35
  %6 = load ptr, ptr %4, align 8, !tbaa !35
  %7 = icmp ne ptr %6, null
  br i1 %7, label %8, label %30

8:                                                ; preds = %2
  call void @llvm.lifetime.start.p0(i64 8, ptr %5) #17
  %9 = load ptr, ptr %3, align 8, !tbaa !44
  %10 = load ptr, ptr %4, align 8, !tbaa !35
  %11 = ptrtoint ptr %10 to i64
  %12 = call i32 @rb_st_lookup(ptr noundef %9, i64 noundef %11, ptr noundef %5)
  %13 = load i64, ptr %5, align 8, !tbaa !6
  %14 = icmp eq i64 %13, 1
  br i1 %14, label %15, label %22

15:                                               ; preds = %8
  %16 = load ptr, ptr %4, align 8, !tbaa !35
  %17 = ptrtoint ptr %16 to i64
  store i64 %17, ptr %5, align 8, !tbaa !6
  %18 = load ptr, ptr %3, align 8, !tbaa !44
  %19 = call i32 @rb_st_delete(ptr noundef %18, ptr noundef %5, ptr noundef null)
  %20 = load i64, ptr %5, align 8, !tbaa !6
  %21 = inttoptr i64 %20 to ptr
  call void @ruby_xfree(ptr noundef %21)
  br label %29

22:                                               ; preds = %8
  %23 = load ptr, ptr %3, align 8, !tbaa !44
  %24 = load ptr, ptr %4, align 8, !tbaa !35
  %25 = ptrtoint ptr %24 to i64
  %26 = load i64, ptr %5, align 8, !tbaa !6
  %27 = sub i64 %26, 1
  %28 = call i32 @rb_st_update(ptr noundef %23, i64 noundef %25, ptr noundef @delete_unique_str_dec, i64 noundef %27)
  br label %29

29:                                               ; preds = %22, %15
  call void @llvm.lifetime.end.p0(i64 8, ptr %5) #17
  br label %30

30:                                               ; preds = %29, %2
  ret void
}

; Function Attrs: nounwind sspstrong uwtable
define internal void @freeobj_i(i64 noundef %0, ptr noundef %1) #0 {
  %3 = alloca i64, align 8
  %4 = alloca ptr, align 8
  %5 = alloca ptr, align 8
  %6 = alloca ptr, align 8
  %7 = alloca i64, align 8
  %8 = alloca i64, align 8
  %9 = alloca ptr, align 8
  %10 = alloca i64, align 8
  store i64 %0, ptr %3, align 8, !tbaa !6
  store ptr %1, ptr %4, align 8, !tbaa !32
  call void @llvm.lifetime.start.p0(i64 8, ptr %5) #17
  %11 = load ptr, ptr %4, align 8, !tbaa !32
  store ptr %11, ptr %5, align 8, !tbaa !10
  call void @llvm.lifetime.start.p0(i64 8, ptr %6) #17
  %12 = load i64, ptr %3, align 8, !tbaa !6
  %13 = call nonnull ptr @rb_tracearg_from_tracepoint(i64 noundef %12)
  store ptr %13, ptr %6, align 8, !tbaa !33
  call void @llvm.lifetime.start.p0(i64 8, ptr %7) #17
  %14 = load ptr, ptr %6, align 8, !tbaa !33
  %15 = call i64 @rb_tracearg_object(ptr noundef %14)
  store i64 %15, ptr %7, align 8, !tbaa !6
  call void @llvm.lifetime.start.p0(i64 8, ptr %8) #17
  call void @llvm.lifetime.start.p0(i64 8, ptr %9) #17
  call void @llvm.lifetime.start.p0(i64 8, ptr %10) #17
  %16 = call i64 @rb_gc_disable_no_rest()
  store i64 %16, ptr %10, align 8, !tbaa !6
  %17 = load ptr, ptr %5, align 8, !tbaa !10
  %18 = getelementptr inbounds nuw %struct.traceobj_arg, ptr %17, i32 0, i32 1
  %19 = load i32, ptr %18, align 4, !tbaa !31
  %20 = icmp ne i32 %19, 0
  br i1 %20, label %21, label %34

21:                                               ; preds = %2
  %22 = load ptr, ptr %5, align 8, !tbaa !10
  %23 = getelementptr inbounds nuw %struct.traceobj_arg, ptr %22, i32 0, i32 4
  %24 = load ptr, ptr %23, align 8, !tbaa !13
  %25 = load i64, ptr %7, align 8, !tbaa !6
  %26 = call i32 @rb_st_lookup(ptr noundef %24, i64 noundef %25, ptr noundef %8)
  %27 = icmp ne i32 %26, 0
  br i1 %27, label %28, label %33

28:                                               ; preds = %21
  %29 = load i64, ptr %8, align 8, !tbaa !6
  %30 = inttoptr i64 %29 to ptr
  store ptr %30, ptr %9, align 8, !tbaa !22
  %31 = load ptr, ptr %9, align 8, !tbaa !22
  %32 = getelementptr inbounds nuw %struct.allocation_info, ptr %31, i32 0, i32 0
  store i32 0, ptr %32, align 8, !tbaa !36
  br label %33

33:                                               ; preds = %28, %21
  br label %57

34:                                               ; preds = %2
  %35 = load ptr, ptr %5, align 8, !tbaa !10
  %36 = getelementptr inbounds nuw %struct.traceobj_arg, ptr %35, i32 0, i32 4
  %37 = load ptr, ptr %36, align 8, !tbaa !13
  %38 = call i32 @rb_st_delete(ptr noundef %37, ptr noundef %7, ptr noundef %8)
  %39 = icmp ne i32 %38, 0
  br i1 %39, label %40, label %56

40:                                               ; preds = %34
  %41 = load i64, ptr %8, align 8, !tbaa !6
  %42 = inttoptr i64 %41 to ptr
  store ptr %42, ptr %9, align 8, !tbaa !22
  %43 = load ptr, ptr %5, align 8, !tbaa !10
  %44 = getelementptr inbounds nuw %struct.traceobj_arg, ptr %43, i32 0, i32 5
  %45 = load ptr, ptr %44, align 8, !tbaa !20
  %46 = load ptr, ptr %9, align 8, !tbaa !22
  %47 = getelementptr inbounds nuw %struct.allocation_info, ptr %46, i32 0, i32 3
  %48 = load ptr, ptr %47, align 8, !tbaa !24
  call void @delete_unique_str(ptr noundef %45, ptr noundef %48)
  %49 = load ptr, ptr %5, align 8, !tbaa !10
  %50 = getelementptr inbounds nuw %struct.traceobj_arg, ptr %49, i32 0, i32 5
  %51 = load ptr, ptr %50, align 8, !tbaa !20
  %52 = load ptr, ptr %9, align 8, !tbaa !22
  %53 = getelementptr inbounds nuw %struct.allocation_info, ptr %52, i32 0, i32 5
  %54 = load ptr, ptr %53, align 8, !tbaa !28
  call void @delete_unique_str(ptr noundef %51, ptr noundef %54)
  %55 = load ptr, ptr %9, align 8, !tbaa !22
  call void @ruby_xfree(ptr noundef %55)
  br label %56

56:                                               ; preds = %40, %34
  br label %57

57:                                               ; preds = %56, %33
  %58 = load i64, ptr %10, align 8, !tbaa !6
  %59 = icmp eq i64 %58, 0
  br i1 %59, label %60, label %62

60:                                               ; preds = %57
  %61 = call i64 @rb_gc_enable()
  br label %62

62:                                               ; preds = %60, %57
  call void @llvm.lifetime.end.p0(i64 8, ptr %10) #17
  call void @llvm.lifetime.end.p0(i64 8, ptr %9) #17
  call void @llvm.lifetime.end.p0(i64 8, ptr %8) #17
  call void @llvm.lifetime.end.p0(i64 8, ptr %7) #17
  call void @llvm.lifetime.end.p0(i64 8, ptr %6) #17
  call void @llvm.lifetime.end.p0(i64 8, ptr %5) #17
  ret void
}