; Function Attrs: nounwind sspstrong uwtable
define internal void @freeobj_i(i64 noundef %0, ptr noundef readonly captures(none) %1) #0 {
  %3 = alloca i64, align 8
  %4 = alloca i64, align 8
  %5 = alloca i64, align 8
  %6 = alloca i64, align 8
  %7 = tail call nonnull ptr @rb_tracearg_from_tracepoint(i64 noundef %0) #10
  call void @llvm.lifetime.start.p0(i64 8, ptr nonnull %5) #10
  %8 = tail call i64 @rb_tracearg_object(ptr noundef nonnull %7) #10
  store i64 %8, ptr %5, align 8, !tbaa !16
  call void @llvm.lifetime.start.p0(i64 8, ptr nonnull %6) #10
  %9 = tail call i64 @rb_gc_disable_no_rest() #10
  %10 = getelementptr inbounds nuw i8, ptr %1, i64 4
  %11 = load i32, ptr %10, align 4, !tbaa !23
  %.not = icmp eq i32 %11, 0
  %12 = getelementptr inbounds nuw i8, ptr %1, i64 24
  %13 = load ptr, ptr %12, align 8, !tbaa !11
  br i1 %.not, label %19, label %14

14:                                               ; preds = %2
  %15 = call i32 @rb_st_lookup(ptr noundef %13, i64 noundef %8, ptr noundef nonnull %6) #10
  %.not13 = icmp eq i32 %15, 0
  br i1 %.not13, label %57, label %16

16:                                               ; preds = %14
  %17 = load i64, ptr %6, align 8, !tbaa !16
  %18 = inttoptr i64 %17 to ptr
  store i32 0, ptr %18, align 8, !tbaa !43
  br label %57

19:                                               ; preds = %2
  %20 = call i32 @rb_st_delete(ptr noundef %13, ptr noundef nonnull %5, ptr noundef nonnull %6) #10
  %.not12 = icmp eq i32 %20, 0
  br i1 %.not12, label %57, label %21

21:                                               ; preds = %19
  %22 = load i64, ptr %6, align 8, !tbaa !16
  %23 = inttoptr i64 %22 to ptr
  %24 = getelementptr inbounds nuw i8, ptr %1, i64 32
  %25 = load ptr, ptr %24, align 8, !tbaa !24
  %26 = getelementptr inbounds nuw i8, ptr %23, i64 24
  %27 = load ptr, ptr %26, align 8, !tbaa !27
  %.not.i = icmp eq ptr %27, null
  br i1 %.not.i, label %delete_unique_str.exit, label %28

28:                                               ; preds = %21
  call void @llvm.lifetime.start.p0(i64 8, ptr nonnull %4) #10
  %29 = ptrtoint ptr %27 to i64
  %30 = call i32 @rb_st_lookup(ptr noundef %25, i64 noundef %29, ptr noundef nonnull %4) #10
  %31 = load i64, ptr %4, align 8, !tbaa !16
  %32 = icmp eq i64 %31, 1
  br i1 %32, label %33, label %37

33:                                               ; preds = %28
  store i64 %29, ptr %4, align 8, !tbaa !16
  %34 = call i32 @rb_st_delete(ptr noundef %25, ptr noundef nonnull %4, ptr noundef null) #10
  %35 = load i64, ptr %4, align 8, !tbaa !16
  %36 = inttoptr i64 %35 to ptr
  call void @ruby_xfree(ptr noundef %36) #10
  br label %40

37:                                               ; preds = %28
  %38 = add i64 %31, -1
  %39 = call i32 @rb_st_update(ptr noundef %25, i64 noundef %29, ptr noundef nonnull @delete_unique_str_dec, i64 noundef %38) #10
  br label %40

40:                                               ; preds = %37, %33
  call void @llvm.lifetime.end.p0(i64 8, ptr nonnull %4) #10
  %.pre = load ptr, ptr %24, align 8, !tbaa !24
  br label %delete_unique_str.exit

delete_unique_str.exit:                           ; preds = %21, %40
  %41 = phi ptr [ %25, %21 ], [ %.pre, %40 ]
  %42 = getelementptr inbounds nuw i8, ptr %23, i64 40
  %43 = load ptr, ptr %42, align 8, !tbaa !31
  %.not.i14 = icmp eq ptr %43, null
  br i1 %.not.i14, label %delete_unique_str.exit15, label %44

44:                                               ; preds = %delete_unique_str.exit
  call void @llvm.lifetime.start.p0(i64 8, ptr nonnull %3) #10
  %45 = ptrtoint ptr %43 to i64
  %46 = call i32 @rb_st_lookup(ptr noundef %41, i64 noundef %45, ptr noundef nonnull %3) #10
  %47 = load i64, ptr %3, align 8, !tbaa !16
  %48 = icmp eq i64 %47, 1
  br i1 %48, label %49, label %53

49:                                               ; preds = %44
  store i64 %45, ptr %3, align 8, !tbaa !16
  %50 = call i32 @rb_st_delete(ptr noundef %41, ptr noundef nonnull %3, ptr noundef null) #10
  %51 = load i64, ptr %3, align 8, !tbaa !16
  %52 = inttoptr i64 %51 to ptr
  call void @ruby_xfree(ptr noundef %52) #10
  br label %56

53:                                               ; preds = %44
  %54 = add i64 %47, -1
  %55 = call i32 @rb_st_update(ptr noundef %41, i64 noundef %45, ptr noundef nonnull @delete_unique_str_dec, i64 noundef %54) #10
  br label %56

56:                                               ; preds = %53, %49
  call void @llvm.lifetime.end.p0(i64 8, ptr nonnull %3) #10
  br label %delete_unique_str.exit15

delete_unique_str.exit15:                         ; preds = %delete_unique_str.exit, %56
  call void @ruby_xfree(ptr noundef nonnull %23) #10
  br label %57

57:                                               ; preds = %19, %delete_unique_str.exit15, %14, %16
  %58 = icmp eq i64 %9, 0
  br i1 %58, label %59, label %61

59:                                               ; preds = %57
  %60 = call i64 @rb_gc_enable() #10
  br label %61

61:                                               ; preds = %59, %57
  call void @llvm.lifetime.end.p0(i64 8, ptr nonnull %6) #10
  call void @llvm.lifetime.end.p0(i64 8, ptr nonnull %5) #10
  ret void
}